target datalayout = "e-m:e-p270:32:32-p271:32:32-p272:64:64-i64:64-i128:128-f80:128-n8:16:32:64-S128"
target triple = "x86_64-pc-linux-gnu"

%struct.jpeg_decompress_struct = type { ptr, ptr, ptr, ptr, i32, i32, ptr, i32, i32, i32, i32, i32, i32, i32, double, i32, i32, i32, i32, i32, i32, i32, i32, i32, i32, i32, i32, i32, i32, i32, i32, i32, i32, ptr, i32, i32, i32, i32, i32, ptr, [4 x ptr], [4 x ptr], [4 x ptr], i32, ptr, i32, i32, [16 x i8], [16 x i8], [16 x i8], i32, i32, i8, i8, i8, i16, i16, i32, i8, i32, ptr, i32, i32, i32, i32, ptr, i32, [4 x ptr], i32, i32, i32, [10 x i32], i32, i32, i32, i32, i32, ptr, ptr, ptr, ptr, ptr, ptr, ptr, ptr, ptr, ptr, ptr }
%struct.jpeg_error_mgr = type { ptr, ptr, ptr, ptr, ptr, i32, %union.anon, i32, i64, ptr, i32, ptr, i32, i32 }
%union.anon = type { [8 x i32], [48 x i8] }
%struct.bitread_working_state = type { ptr, i64, i32, i32, ptr }
%struct.jpeg_source_mgr = type { ptr, i64, ptr, ptr, ptr, ptr, ptr }
%struct.jpeg_entropy_decoder = type { ptr, ptr, i32 }

; Function Attrs: nounwind uwtable
define hidden i32 @jFilBitBuf(ptr noundef %0, i32 noundef %1, i32 noundef %2, i32 noundef %3) #0 {
  %5 = alloca i32, align 4
  %6 = alloca ptr, align 8
  %7 = alloca i32, align 4
  %8 = alloca i32, align 4
  %9 = alloca i32, align 4
  %10 = alloca ptr, align 8
  %11 = alloca i64, align 8
  %12 = alloca ptr, align 8
  %13 = alloca i32, align 4
  store ptr %0, ptr %6, align 8
  store i32 %1, ptr %7, align 4
  store i32 %2, ptr %8, align 4
  store i32 %3, ptr %9, align 4
  %14 = load ptr, ptr %6, align 8
  %15 = getelementptr inbounds %struct.bitread_working_state, ptr %14, i32 0, i32 0
  %16 = load ptr, ptr %15, align 8
  store ptr %16, ptr %10, align 8
  %17 = load ptr, ptr %6, align 8
  %18 = getelementptr inbounds %struct.bitread_working_state, ptr %17, i32 0, i32 1
  %19 = load i64, ptr %18, align 8
  store i64 %19, ptr %11, align 8
  %20 = load ptr, ptr %6, align 8
  %21 = getelementptr inbounds %struct.bitread_working_state, ptr %20, i32 0, i32 4
  %22 = load ptr, ptr %21, align 8
  store ptr %22, ptr %12, align 8
  %23 = load ptr, ptr %12, align 8
  %24 = getelementptr inbounds %struct.jpeg_decompress_struct, ptr %23, i32 0, i32 76
  %25 = load i32, ptr %24, align 4
  %26 = icmp eq i32 %25, 0
  br i1 %26, label %27, label %116

27:                                               ; preds = %4
  br label %28

28:                                               ; preds = %108, %27
  %29 = load i32, ptr %8, align 4
  %30 = icmp slt i32 %29, 25
  br i1 %30, label %31, label %115

31:                                               ; preds = %28
  %32 = load i64, ptr %11, align 8
  %33 = icmp eq i64 %32, 0
  br i1 %33, label %34, label %55

34:                                               ; preds = %31
  %35 = load ptr, ptr %12, align 8
  %36 = getelementptr inbounds %struct.jpeg_decompress_struct, ptr %35, i32 0, i32 6
  %37 = load ptr, ptr %36, align 8
  %38 = getelementptr inbounds %struct.jpeg_source_mgr, ptr %37, i32 0, i32 3
  %39 = load ptr, ptr %38, align 8
  %40 = load ptr, ptr %12, align 8
  %41 = call i32 %39(ptr noundef %40)
  %42 = icmp ne i32 %41, 0
  br i1 %42, label %44, label %43

43:                                               ; preds = %34
  store i32 0, ptr %5, align 4
  br label %162

44:                                               ; preds = %34
  %45 = load ptr, ptr %12, align 8
  %46 = getelementptr inbounds %struct.jpeg_decompress_struct, ptr %45, i32 0, i32 6
  %47 = load ptr, ptr %46, align 8
  %48 = getelementptr inbounds %struct.jpeg_source_mgr, ptr %47, i32 0, i32 0
  %49 = load ptr, ptr %48, align 8
  store ptr %49, ptr %10, align 8
  %50 = load ptr, ptr %12, align 8
  %51 = getelementptr inbounds %struct.jpeg_decompress_struct, ptr %50, i32 0, i32 6
  %52 = load ptr, ptr %51, align 8
  %53 = getelementptr inbounds %struct.jpeg_source_mgr, ptr %52, i32 0, i32 1
  %54 = load i64, ptr %53, align 8
  store i64 %54, ptr %11, align 8
  br label %55

55:                                               ; preds = %44, %31
  %56 = load i64, ptr %11, align 8
  %57 = add i64 %56, -1
  store i64 %57, ptr %11, align 8
  %58 = load ptr, ptr %10, align 8
  %59 = getelementptr inbounds i8, ptr %58, i32 1
  store ptr %59, ptr %10, align 8
  %60 = load i8, ptr %58, align 1
  %61 = zext i8 %60 to i32
  store i32 %61, ptr %13, align 4
  %62 = load i32, ptr %13, align 4
  %63 = icmp eq i32 %62, 255
  br i1 %63, label %64, label %108

64:                                               ; preds = %55
  br label %65

65:                                               ; preds = %96, %64
  %66 = load i64, ptr %11, align 8
  %67 = icmp eq i64 %66, 0
  br i1 %67, label %68, label %89

68:                                               ; preds = %65
  %69 = load ptr, ptr %12, align 8
  %70 = getelementptr inbounds %struct.jpeg_decompress_struct, ptr %69, i32 0, i32 6
  %71 = load ptr, ptr %70, align 8
  %72 = getelementptr inbounds %struct.jpeg_source_mgr, ptr %71, i32 0, i32 3
  %73 = load ptr, ptr %72, align 8
  %74 = load ptr, ptr %12, align 8
  %75 = call i32 %73(ptr noundef %74)
  %76 = icmp ne i32 %75, 0
  br i1 %76, label %78, label %77

77:                                               ; preds = %68
  store i32 0, ptr %5, align 4
  br label %162

78:                                               ; preds = %68
  %79 = load ptr, ptr %12, align 8
  %80 = getelementptr inbounds %struct.jpeg_decompress_struct, ptr %79, i32 0, i32 6
  %81 = load ptr, ptr %80, align 8
  %82 = getelementptr inbounds %struct.jpeg_source_mgr, ptr %81, i32 0, i32 0
  %83 = load ptr, ptr %82, align 8
  store ptr %83, ptr %10, align 8
  %84 = load ptr, ptr %12, align 8
  %85 = getelementptr inbounds %struct.jpeg_decompress_struct, ptr %84, i32 0, i32 6
  %86 = load ptr, ptr %85, align 8
  %87 = getelementptr inbounds %struct.jpeg_source_mgr, ptr %86, i32 0, i32 1
  %88 = load i64, ptr %87, align 8
  store i64 %88, ptr %11, align 8
  br label %89

89:                                               ; preds = %78, %65
  %90 = load i64, ptr %11, align 8
  %91 = add i64 %90, -1
  store i64 %91, ptr %11, align 8
  %92 = load ptr, ptr %10, align 8
  %93 = getelementptr inbounds i8, ptr %92, i32 1
  store ptr %93, ptr %10, align 8
  %94 = load i8, ptr %92, align 1
  %95 = zext i8 %94 to i32
  store i32 %95, ptr %13, align 4
  br label %96

96:                                               ; preds = %89
  %97 = load i32, ptr %13, align 4
  %98 = icmp eq i32 %97, 255
  br i1 %98, label %65, label %99, !llvm.loop !16

99:                                               ; preds = %96
  %100 = load i32, ptr %13, align 4
  %101 = icmp eq i32 %100, 0
  br i1 %101, label %102, label %103

102:                                              ; preds = %99
  store i32 255, ptr %13, align 4
  br label %107

103:                                              ; preds = %99
  %104 = load i32, ptr %13, align 4
  %105 = load ptr, ptr %12, align 8
  %106 = getelementptr inbounds %struct.jpeg_decompress_struct, ptr %105, i32 0, i32 76
  store i32 %104, ptr %106, align 4
  br label %117

107:                                              ; preds = %102
  br label %108

108:                                              ; preds = %107, %55
  %109 = load i32, ptr %7, align 4
  %110 = shl i32 %109, 8
  %111 = load i32, ptr %13, align 4
  %112 = or i32 %110, %111
  store i32 %112, ptr %7, align 4
  %113 = load i32, ptr %8, align 4
  %114 = add nsw i32 %113, 8
  store i32 %114, ptr %8, align 4
  br label %28, !llvm.loop !17

115:                                              ; preds = %28
  br label %149

116:                                              ; preds = %4
  br label %117

117:                                              ; preds = %116, %103
  %118 = load i32, ptr %9, align 4
  %119 = load i32, ptr %8, align 4
  %120 = icmp sgt i32 %118, %119
  br i1 %120, label %121, label %148

121:                                              ; preds = %117
  %122 = load ptr, ptr %12, align 8
  %123 = getelementptr inbounds %struct.jpeg_decompress_struct, ptr %122, i32 0, i32 83
  %124 = load ptr, ptr %123, align 8
  %125 = getelementptr inbounds %struct.jpeg_entropy_decoder, ptr %124, i32 0, i32 2
  %126 = load i32, ptr %125, align 8
  %127 = icmp ne i32 %126, 0
  br i1 %127, label %143, label %128

128:                                              ; preds = %121
  %129 = load ptr, ptr %12, align 8
  %130 = getelementptr inbounds %struct.jpeg_decompress_struct, ptr %129, i32 0, i32 0
  %131 = load ptr, ptr %130, align 8
  %132 = getelementptr inbounds %struct.jpeg_error_mgr, ptr %131, i32 0, i32 5
  store i32 117, ptr %132, align 8
  %133 = load ptr, ptr %12, align 8
  %134 = getelementptr inbounds %struct.jpeg_decompress_struct, ptr %133, i32 0, i32 0
  %135 = load ptr, ptr %134, align 8
  %136 = getelementptr inbounds %struct.jpeg_error_mgr, ptr %135, i32 0, i32 1
  %137 = load ptr, ptr %136, align 8
  %138 = load ptr, ptr %12, align 8
  call void %137(ptr noundef %138, i32 noundef -1)
  %139 = load ptr, ptr %12, align 8
  %140 = getelementptr inbounds %struct.jpeg_decompress_struct, ptr %139, i32 0, i32 83
  %141 = load ptr, ptr %140, align 8
  %142 = getelementptr inbounds %struct.jpeg_entropy_decoder, ptr %141, i32 0, i32 2
  store i32 1, ptr %142, align 8
  br label %143

143:                                              ; preds = %128, %121
  %144 = load i32, ptr %8, align 4
  %145 = sub nsw i32 25, %144
  %146 = load i32, ptr %7, align 4
  %147 = shl i32 %146, %145
  store i32 %147, ptr %7, align 4
  store i32 25, ptr %8, align 4
  br label %148

148:                                              ; preds = %143, %117
  br label %149

149:                                              ; preds = %148, %115
  %150 = load ptr, ptr %10, align 8
  %151 = load ptr, ptr %6, align 8
  %152 = getelementptr inbounds %struct.bitread_working_state, ptr %151, i32 0, i32 0
  store ptr %150, ptr %152, align 8
  %153 = load i64, ptr %11, align 8
  %154 = load ptr, ptr %6, align 8
  %155 = getelementptr inbounds %struct.bitread_working_state, ptr %154, i32 0, i32 1
  store i64 %153, ptr %155, align 8
  %156 = load i32, ptr %7, align 4
  %157 = load ptr, ptr %6, align 8
  %158 = getelementptr inbounds %struct.bitread_working_state, ptr %157, i32 0, i32 2
  store i32 %156, ptr %158, align 8
  %159 = load i32, ptr %8, align 4
  %160 = load ptr, ptr %6, align 8
  %161 = getelementptr inbounds %struct.bitread_working_state, ptr %160, i32 0, i32 3
  store i32 %159, ptr %161, align 4
  store i32 1, ptr %5, align 4
  br label %162

162:                                              ; preds = %149, %77, %43
  %163 = load i32, ptr %5, align 4
  ret i32 %163
}