; Function Attrs: nounwind uwtable
define hidden range(i32 0, 2) i32 @jFilBitBuf(ptr nocapture noundef %0, i32 noundef %1, i32 noundef %2, i32 noundef %3) local_unnamed_addr #0 {
  %5 = load ptr, ptr %0, align 8
  %6 = getelementptr inbounds i8, ptr %0, i64 8
  %7 = load i64, ptr %6, align 8
  %8 = getelementptr inbounds i8, ptr %0, i64 24
  %9 = load ptr, ptr %8, align 8
  %10 = getelementptr inbounds i8, ptr %9, i64 540
  %11 = load i32, ptr %10, align 4
  %12 = icmp eq i32 %11, 0
  br i1 %12, label %.preheader64, label %54

.preheader64:                                     ; preds = %4
  %13 = icmp slt i32 %2, 25
  br i1 %13, label %.lr.ph, label %.loopexit65

.lr.ph:                                           ; preds = %.preheader64
  %14 = getelementptr inbounds i8, ptr %9, i64 40
  br label %15

15:                                               ; preds = %.lr.ph, %.loopexit63
  %.04587 = phi i64 [ %7, %.lr.ph ], [ %.4, %.loopexit63 ]
  %.04686 = phi ptr [ %5, %.lr.ph ], [ %.450, %.loopexit63 ]
  %.05385 = phi i32 [ %1, %.lr.ph ], [ %51, %.loopexit63 ]
  %.05684 = phi i32 [ %2, %.lr.ph ], [ %52, %.loopexit63 ]
  %16 = icmp eq i64 %.04587, 0
  br i1 %16, label %17, label %27

17:                                               ; preds = %15
  %18 = load ptr, ptr %14, align 8
  %19 = getelementptr inbounds i8, ptr %18, i64 24
  %20 = load ptr, ptr %19, align 8
  %21 = tail call i32 %20(ptr noundef %9) #3
  %.not = icmp eq i32 %21, 0
  br i1 %.not, label %.loopexit, label %22

22:                                               ; preds = %17
  %23 = load ptr, ptr %14, align 8
  %24 = load ptr, ptr %23, align 8
  %25 = getelementptr inbounds i8, ptr %23, i64 8
  %26 = load i64, ptr %25, align 8
  br label %27

27:                                               ; preds = %22, %15
  %.147 = phi ptr [ %24, %22 ], [ %.04686, %15 ]
  %.1 = phi i64 [ %26, %22 ], [ %.04587, %15 ]
  %28 = add i64 %.1, -1
  %29 = getelementptr inbounds i8, ptr %.147, i64 1
  %30 = load i8, ptr %.147, align 1
  %31 = zext i8 %30 to i32
  %32 = icmp eq i8 %30, -1
  br i1 %32, label %.preheader, label %.loopexit63

.preheader:                                       ; preds = %27, %44
  %.248 = phi ptr [ %46, %44 ], [ %29, %27 ]
  %.2 = phi i64 [ %45, %44 ], [ %28, %27 ]
  %33 = icmp eq i64 %.2, 0
  br i1 %33, label %34, label %44

34:                                               ; preds = %.preheader
  %35 = load ptr, ptr %14, align 8
  %36 = getelementptr inbounds i8, ptr %35, i64 24
  %37 = load ptr, ptr %36, align 8
  %38 = tail call i32 %37(ptr noundef %9) #3
  %.not61 = icmp eq i32 %38, 0
  br i1 %.not61, label %.loopexit, label %39

39:                                               ; preds = %34
  %40 = load ptr, ptr %14, align 8
  %41 = load ptr, ptr %40, align 8
  %42 = getelementptr inbounds i8, ptr %40, i64 8
  %43 = load i64, ptr %42, align 8
  br label %44

44:                                               ; preds = %39, %.preheader
  %.349 = phi ptr [ %41, %39 ], [ %.248, %.preheader ]
  %.3 = phi i64 [ %43, %39 ], [ %.2, %.preheader ]
  %45 = add i64 %.3, -1
  %46 = getelementptr inbounds i8, ptr %.349, i64 1
  %47 = load i8, ptr %.349, align 1
  switch i8 %47, label %48 [
    i8 -1, label %.preheader
    i8 0, label %.loopexit63
  ]

48:                                               ; preds = %44
  %49 = zext i8 %47 to i32
  store i32 %49, ptr %10, align 4
  br label %54

.loopexit63:                                      ; preds = %44, %27
  %.450 = phi ptr [ %29, %27 ], [ %46, %44 ]
  %.4 = phi i64 [ %28, %27 ], [ %45, %44 ]
  %.0 = phi i32 [ %31, %27 ], [ 255, %44 ]
  %50 = shl i32 %.05385, 8
  %51 = or disjoint i32 %.0, %50
  %52 = add nsw i32 %.05684, 8
  %53 = icmp slt i32 %.05684, 17
  br i1 %53, label %15, label %.loopexit65, !llvm.loop !15

54:                                               ; preds = %4, %48
  %.157 = phi i32 [ %.05684, %48 ], [ %2, %4 ]
  %.154 = phi i32 [ %.05385, %48 ], [ %1, %4 ]
  %.551 = phi ptr [ %46, %48 ], [ %5, %4 ]
  %.5 = phi i64 [ %45, %48 ], [ %7, %4 ]
  %55 = icmp slt i32 %.157, %3
  br i1 %55, label %56, label %.loopexit65

56:                                               ; preds = %54
  %57 = getelementptr inbounds i8, ptr %9, i64 592
  %58 = load ptr, ptr %57, align 8
  %59 = getelementptr inbounds i8, ptr %58, i64 16
  %60 = load i32, ptr %59, align 8
  %.not62 = icmp eq i32 %60, 0
  br i1 %.not62, label %61, label %69

61:                                               ; preds = %56
  %62 = load ptr, ptr %9, align 8
  %63 = getelementptr inbounds i8, ptr %62, i64 40
  store i32 117, ptr %63, align 8
  %64 = load ptr, ptr %9, align 8
  %65 = getelementptr inbounds i8, ptr %64, i64 8
  %66 = load ptr, ptr %65, align 8
  tail call void %66(ptr noundef nonnull %9, i32 noundef -1) #3
  %67 = load ptr, ptr %57, align 8
  %68 = getelementptr inbounds i8, ptr %67, i64 16
  store i32 1, ptr %68, align 8
  br label %69

69:                                               ; preds = %61, %56
  %70 = sub nsw i32 25, %.157
  %71 = shl i32 %.154, %70
  br label %.loopexit65

.loopexit65:                                      ; preds = %.loopexit63, %.preheader64, %54, %69
  %.258 = phi i32 [ 25, %69 ], [ %.157, %54 ], [ %2, %.preheader64 ], [ %52, %.loopexit63 ]
  %.255 = phi i32 [ %71, %69 ], [ %.154, %54 ], [ %1, %.preheader64 ], [ %51, %.loopexit63 ]
  %.652 = phi ptr [ %.551, %69 ], [ %.551, %54 ], [ %5, %.preheader64 ], [ %.450, %.loopexit63 ]
  %.6 = phi i64 [ %.5, %69 ], [ %.5, %54 ], [ %7, %.preheader64 ], [ %.4, %.loopexit63 ]
  store ptr %.652, ptr %0, align 8
  store i64 %.6, ptr %6, align 8
  %72 = getelementptr inbounds i8, ptr %0, i64 16
  store i32 %.255, ptr %72, align 8
  %73 = getelementptr inbounds i8, ptr %0, i64 20
  store i32 %.258, ptr %73, align 4
  br label %.loopexit

.loopexit:                                        ; preds = %17, %34, %.loopexit65
  %.044 = phi i32 [ 1, %.loopexit65 ], [ 0, %34 ], [ 0, %17 ]
  ret i32 %.044
}